target datalayout = "e-m:e-p270:32:32-p271:32:32-p272:64:64-i64:64-i128:128-f80:128-n8:16:32:64-S128"
target triple = "x86_64-pc-linux-gnu"

; Function Attrs: nounwind uwtable
define internal ptr @appendEncodedByte(ptr noundef %0, ptr noundef %1, i8 noundef zeroext %2, ptr noundef %3, ptr noundef %4) #0 {
  %6 = alloca ptr, align 8
  %7 = alloca ptr, align 8
  %8 = alloca ptr, align 8
  %9 = alloca i8, align 1
  %10 = alloca ptr, align 8
  %11 = alloca ptr, align 8
  %12 = alloca i16, align 2
  store ptr %0, ptr %7, align 8, !tbaa !4
  store ptr %1, ptr %8, align 8, !tbaa !4
  store i8 %2, ptr %9, align 1, !tbaa !19
  store ptr %3, ptr %10, align 8, !tbaa !17
  store ptr %4, ptr %11, align 8, !tbaa !11
  %13 = load ptr, ptr %11, align 8, !tbaa !11
  %14 = icmp ne ptr %13, null
  br i1 %14, label %15, label %19

15:                                               ; preds = %5
  %16 = load ptr, ptr %11, align 8, !tbaa !11
  %17 = load i32, ptr %16, align 4, !tbaa !9
  %18 = icmp sgt i32 %17, 0
  br i1 %18, label %19, label %20

19:                                               ; preds = %15, %5
  store ptr null, ptr %6, align 8
  br label %57

20:                                               ; preds = %15
  %21 = load ptr, ptr %10, align 8, !tbaa !17
  %22 = getelementptr inbounds i8, ptr %21, i64 0
  %23 = load i8, ptr %22, align 1, !tbaa !19
  %24 = zext i8 %23 to i32
  %25 = icmp ne i32 %24, 0
  br i1 %25, label %26, label %50

26:                                               ; preds = %20
  call void @llvm.lifetime.start.p0(i64 2, ptr %12) #4
  %27 = load ptr, ptr %10, align 8, !tbaa !17
  %28 = getelementptr inbounds i8, ptr %27, i64 1
  %29 = load i8, ptr %28, align 1, !tbaa !19
  %30 = zext i8 %29 to i32
  %31 = shl i32 %30, 8
  %32 = load i8, ptr %9, align 1, !tbaa !19
  %33 = zext i8 %32 to i32
  %34 = and i32 %33, 255
  %35 = or i32 %31, %34
  %36 = trunc i32 %35 to i16
  store i16 %36, ptr %12, align 2, !tbaa !12
  %37 = load ptr, ptr %7, align 8, !tbaa !4
  %38 = load ptr, ptr %8, align 8, !tbaa !4
  %39 = icmp ult ptr %37, %38
  br i1 %39, label %40, label %44

40:                                               ; preds = %26
  %41 = load i16, ptr %12, align 2, !tbaa !12
  %42 = load ptr, ptr %7, align 8, !tbaa !4
  %43 = getelementptr inbounds nuw i16, ptr %42, i32 1
  store ptr %43, ptr %7, align 8, !tbaa !4
  store i16 %41, ptr %42, align 2, !tbaa !12
  br label %46

44:                                               ; preds = %26
  %45 = load ptr, ptr %11, align 8, !tbaa !11
  store i32 15, ptr %45, align 4, !tbaa !9
  br label %46

46:                                               ; preds = %44, %40
  %47 = load ptr, ptr %10, align 8, !tbaa !17
  %48 = getelementptr inbounds i8, ptr %47, i64 0
  store i8 0, ptr %48, align 1, !tbaa !19
  %49 = load ptr, ptr %7, align 8, !tbaa !4
  store ptr %49, ptr %6, align 8
  call void @llvm.lifetime.end.p0(i64 2, ptr %12) #4
  br label %57

50:                                               ; preds = %20
  %51 = load ptr, ptr %10, align 8, !tbaa !17
  %52 = getelementptr inbounds i8, ptr %51, i64 0
  store i8 1, ptr %52, align 1, !tbaa !19
  %53 = load i8, ptr %9, align 1, !tbaa !19
  %54 = load ptr, ptr %10, align 8, !tbaa !17
  %55 = getelementptr inbounds i8, ptr %54, i64 1
  store i8 %53, ptr %55, align 1, !tbaa !19
  %56 = load ptr, ptr %7, align 8, !tbaa !4
  store ptr %56, ptr %6, align 8
  br label %57

57:                                               ; preds = %50, %46, %19
  %58 = load ptr, ptr %6, align 8
  ret ptr %58
}

; Function Attrs: nounwind uwtable
define internal ptr @encodeRunByte(ptr noundef %0, ptr noundef %1, i8 noundef zeroext %2, i32 noundef %3, ptr noundef %4, ptr noundef %5) #0 {
  %7 = alloca ptr, align 8
  %8 = alloca ptr, align 8
  %9 = alloca ptr, align 8
  %10 = alloca i8, align 1
  %11 = alloca i32, align 4
  %12 = alloca ptr, align 8
  %13 = alloca ptr, align 8
  %14 = alloca i32, align 4
  store ptr %0, ptr %8, align 8, !tbaa !4
  store ptr %1, ptr %9, align 8, !tbaa !4
  store i8 %2, ptr %10, align 1, !tbaa !19
  store i32 %3, ptr %11, align 4, !tbaa !9
  store ptr %4, ptr %12, align 8, !tbaa !17
  store ptr %5, ptr %13, align 8, !tbaa !11
  %15 = load ptr, ptr %13, align 8, !tbaa !11
  %16 = icmp ne ptr %15, null
  br i1 %16, label %17, label %21

17:                                               ; preds = %6
  %18 = load ptr, ptr %13, align 8, !tbaa !11
  %19 = load i32, ptr %18, align 4, !tbaa !9
  %20 = icmp sgt i32 %19, 0
  br i1 %20, label %21, label %22

21:                                               ; preds = %17, %6
  store ptr null, ptr %7, align 8
  br label %94

22:                                               ; preds = %17
  %23 = load i32, ptr %11, align 4, !tbaa !9
  %24 = icmp slt i32 %23, 4
  br i1 %24, label %25, label %51

25:                                               ; preds = %22
  call void @llvm.lifetime.start.p0(i64 4, ptr %14) #4
  store i32 0, ptr %14, align 4, !tbaa !9
  br label %26

26:                                               ; preds = %47, %25
  %27 = load i32, ptr %14, align 4, !tbaa !9
  %28 = load i32, ptr %11, align 4, !tbaa !9
  %29 = icmp slt i32 %27, %28
  br i1 %29, label %30, label %50

30:                                               ; preds = %26
  %31 = load i8, ptr %10, align 1, !tbaa !19
  %32 = zext i8 %31 to i32
  %33 = icmp eq i32 %32, 165
  br i1 %33, label %34, label %40

34:                                               ; preds = %30
  %35 = load ptr, ptr %8, align 8, !tbaa !4
  %36 = load ptr, ptr %9, align 8, !tbaa !4
  %37 = load ptr, ptr %12, align 8, !tbaa !17
  %38 = load ptr, ptr %13, align 8, !tbaa !11
  %39 = call ptr @appendEncodedByte(ptr noundef %35, ptr noundef %36, i8 noundef zeroext -91, ptr noundef %37, ptr noundef %38)
  store ptr %39, ptr %8, align 8, !tbaa !4
  br label %40

40:                                               ; preds = %34, %30
  %41 = load ptr, ptr %8, align 8, !tbaa !4
  %42 = load ptr, ptr %9, align 8, !tbaa !4
  %43 = load i8, ptr %10, align 1, !tbaa !19
  %44 = load ptr, ptr %12, align 8, !tbaa !17
  %45 = load ptr, ptr %13, align 8, !tbaa !11
  %46 = call ptr @appendEncodedByte(ptr noundef %41, ptr noundef %42, i8 noundef zeroext %43, ptr noundef %44, ptr noundef %45)
  store ptr %46, ptr %8, align 8, !tbaa !4
  br label %47

47:                                               ; preds = %40
  %48 = load i32, ptr %14, align 4, !tbaa !9
  %49 = add nsw i32 %48, 1
  store i32 %49, ptr %14, align 4, !tbaa !9
  br label %26, !llvm.loop !21

50:                                               ; preds = %26
  call void @llvm.lifetime.end.p0(i64 4, ptr %14) #4
  br label %92

51:                                               ; preds = %22
  %52 = load i32, ptr %11, align 4, !tbaa !9
  %53 = icmp eq i32 %52, 165
  br i1 %53, label %54, label %73

54:                                               ; preds = %51
  %55 = load i8, ptr %10, align 1, !tbaa !19
  %56 = zext i8 %55 to i32
  %57 = icmp eq i32 %56, 165
  br i1 %57, label %58, label %64

58:                                               ; preds = %54
  %59 = load ptr, ptr %8, align 8, !tbaa !4
  %60 = load ptr, ptr %9, align 8, !tbaa !4
  %61 = load ptr, ptr %12, align 8, !tbaa !17
  %62 = load ptr, ptr %13, align 8, !tbaa !11
  %63 = call ptr @appendEncodedByte(ptr noundef %59, ptr noundef %60, i8 noundef zeroext -91, ptr noundef %61, ptr noundef %62)
  store ptr %63, ptr %8, align 8, !tbaa !4
  br label %64

64:                                               ; preds = %58, %54
  %65 = load ptr, ptr %8, align 8, !tbaa !4
  %66 = load ptr, ptr %9, align 8, !tbaa !4
  %67 = load i8, ptr %10, align 1, !tbaa !19
  %68 = load ptr, ptr %12, align 8, !tbaa !17
  %69 = load ptr, ptr %13, align 8, !tbaa !11
  %70 = call ptr @appendEncodedByte(ptr noundef %65, ptr noundef %66, i8 noundef zeroext %67, ptr noundef %68, ptr noundef %69)
  store ptr %70, ptr %8, align 8, !tbaa !4
  %71 = load i32, ptr %11, align 4, !tbaa !9
  %72 = add nsw i32 %71, -1
  store i32 %72, ptr %11, align 4, !tbaa !9
  br label %73

73:                                               ; preds = %64, %51
  %74 = load ptr, ptr %8, align 8, !tbaa !4
  %75 = load ptr, ptr %9, align 8, !tbaa !4
  %76 = load ptr, ptr %12, align 8, !tbaa !17
  %77 = load ptr, ptr %13, align 8, !tbaa !11
  %78 = call ptr @appendEncodedByte(ptr noundef %74, ptr noundef %75, i8 noundef zeroext -91, ptr noundef %76, ptr noundef %77)
  store ptr %78, ptr %8, align 8, !tbaa !4
  %79 = load ptr, ptr %8, align 8, !tbaa !4
  %80 = load ptr, ptr %9, align 8, !tbaa !4
  %81 = load i32, ptr %11, align 4, !tbaa !9
  %82 = trunc i32 %81 to i8
  %83 = load ptr, ptr %12, align 8, !tbaa !17
  %84 = load ptr, ptr %13, align 8, !tbaa !11
  %85 = call ptr @appendEncodedByte(ptr noundef %79, ptr noundef %80, i8 noundef zeroext %82, ptr noundef %83, ptr noundef %84)
  store ptr %85, ptr %8, align 8, !tbaa !4
  %86 = load ptr, ptr %8, align 8, !tbaa !4
  %87 = load ptr, ptr %9, align 8, !tbaa !4
  %88 = load i8, ptr %10, align 1, !tbaa !19
  %89 = load ptr, ptr %12, align 8, !tbaa !17
  %90 = load ptr, ptr %13, align 8, !tbaa !11
  %91 = call ptr @appendEncodedByte(ptr noundef %86, ptr noundef %87, i8 noundef zeroext %88, ptr noundef %89, ptr noundef %90)
  store ptr %91, ptr %8, align 8, !tbaa !4
  br label %92

92:                                               ; preds = %73, %50
  %93 = load ptr, ptr %8, align 8, !tbaa !4
  store ptr %93, ptr %7, align 8
  br label %94

94:                                               ; preds = %92, %21
  %95 = load ptr, ptr %7, align 8
  ret ptr %95
}