; Function Attrs: nofree norecurse nosync nounwind memory(write, argmem: readwrite, inaccessiblemem: none) uwtable
define internal fastcc ptr @encodeRunByte(ptr noundef writeonly %0, ptr noundef readnone %1, i8 noundef zeroext %2, i32 noundef %3, ptr noundef nonnull captures(none) %4, ptr noundef %5) unnamed_addr #0 {
  %.not = icmp eq ptr %5, null
  br i1 %.not, label %appendEncodedByte.exit78, label %7

7:                                                ; preds = %6
  %8 = load i32, ptr %5, align 4, !tbaa !8
  %9 = icmp sgt i32 %8, 0
  br i1 %9, label %appendEncodedByte.exit78, label %10

10:                                               ; preds = %7
  %11 = icmp slt i32 %3, 4
  br i1 %11, label %.preheader, label %57

.preheader:                                       ; preds = %10
  %12 = icmp sgt i32 %3, 0
  br i1 %12, label %.lr.ph, label %appendEncodedByte.exit78

.lr.ph:                                           ; preds = %.preheader
  %13 = icmp eq i8 %2, -91
  %14 = getelementptr inbounds nuw i8, ptr %4, i64 1
  %15 = zext i8 %2 to i16
  br i1 %13, label %.lr.ph.split.us.split, label %appendEncodedByte.exit

.lr.ph.split.us.split:                            ; preds = %.lr.ph, %appendEncodedByte.exit53.us
  %.094.us = phi i32 [ %41, %appendEncodedByte.exit53.us ], [ 0, %.lr.ph ]
  %.04493.us = phi ptr [ %.0.i52.us, %appendEncodedByte.exit53.us ], [ %0, %.lr.ph ]
  %16 = load i32, ptr %5, align 4, !tbaa !8
  %17 = icmp sgt i32 %16, 0
  br i1 %17, label %appendEncodedByte.exit53.us, label %18

18:                                               ; preds = %.lr.ph.split.us.split
  %19 = load i8, ptr %4, align 1, !tbaa !13
  %.not19.i.us.not = icmp eq i8 %19, 0
  br i1 %.not19.i.us.not, label %appendEncodedByte.exit.us, label %20

20:                                               ; preds = %18
  %21 = icmp ult ptr %.04493.us, %1
  br i1 %21, label %23, label %22

22:                                               ; preds = %20
  store i32 15, ptr %5, align 4, !tbaa !8
  br label %appendEncodedByte.exit.us.thread

23:                                               ; preds = %20
  %24 = load i8, ptr %14, align 1, !tbaa !13
  %25 = zext i8 %24 to i16
  %26 = shl nuw i16 %25, 8
  %27 = or disjoint i16 %26, 165
  %28 = getelementptr inbounds nuw i8, ptr %.04493.us, i64 2
  store i16 %27, ptr %.04493.us, align 2, !tbaa !4
  br label %appendEncodedByte.exit.us.thread

appendEncodedByte.exit.us:                        ; preds = %18
  store i8 1, ptr %4, align 1, !tbaa !13
  store i8 -91, ptr %14, align 1, !tbaa !13
  %.pr.us = load i32, ptr %5, align 4, !tbaa !8
  %29 = icmp sgt i32 %.pr.us, 0
  br i1 %29, label %appendEncodedByte.exit53.us, label %31

appendEncodedByte.exit.us.thread:                 ; preds = %22, %23
  %.016.i.us = phi ptr [ %28, %23 ], [ %.04493.us, %22 ]
  store i8 0, ptr %4, align 1, !tbaa !13
  %.pr.us109 = load i32, ptr %5, align 4, !tbaa !8
  %30 = icmp sgt i32 %.pr.us109, 0
  br i1 %30, label %appendEncodedByte.exit53.us, label %.thread

31:                                               ; preds = %appendEncodedByte.exit.us
  %32 = icmp ult ptr %.04493.us, %1
  br i1 %32, label %34, label %33

33:                                               ; preds = %31
  store i32 15, ptr %5, align 4, !tbaa !8
  br label %40

34:                                               ; preds = %31
  %35 = load i8, ptr %14, align 1, !tbaa !13
  %36 = zext i8 %35 to i16
  %37 = shl nuw i16 %36, 8
  %38 = or disjoint i16 %37, 165
  %39 = getelementptr inbounds nuw i8, ptr %.04493.us, i64 2
  store i16 %38, ptr %.04493.us, align 2, !tbaa !4
  br label %40

40:                                               ; preds = %34, %33
  %.016.i51.us = phi ptr [ %39, %34 ], [ %.04493.us, %33 ]
  store i8 0, ptr %4, align 1, !tbaa !13
  br label %appendEncodedByte.exit53.us

.thread:                                          ; preds = %appendEncodedByte.exit.us.thread
  store i8 1, ptr %4, align 1, !tbaa !13
  store i8 -91, ptr %14, align 1, !tbaa !13
  br label %appendEncodedByte.exit53.us

appendEncodedByte.exit53.us:                      ; preds = %appendEncodedByte.exit.us.thread, %.thread, %40, %appendEncodedByte.exit.us, %.lr.ph.split.us.split
  %.0.i52.us = phi ptr [ %.016.i51.us, %40 ], [ %.016.i.us, %.thread ], [ null, %appendEncodedByte.exit.us ], [ null, %.lr.ph.split.us.split ], [ null, %appendEncodedByte.exit.us.thread ]
  %41 = add nuw nsw i32 %.094.us, 1
  %exitcond107.not = icmp eq i32 %41, %3
  br i1 %exitcond107.not, label %appendEncodedByte.exit78, label %.lr.ph.split.us.split, !llvm.loop !15

appendEncodedByte.exit:                           ; preds = %.lr.ph, %appendEncodedByte.exit53
  %.094 = phi i32 [ %56, %appendEncodedByte.exit53 ], [ 0, %.lr.ph ]
  %.04493 = phi ptr [ %.0.i52, %appendEncodedByte.exit53 ], [ %0, %.lr.ph ]
  %.pr = load i32, ptr %5, align 4, !tbaa !8
  %42 = icmp sgt i32 %.pr, 0
  br i1 %42, label %appendEncodedByte.exit53, label %43

43:                                               ; preds = %appendEncodedByte.exit
  %44 = load i8, ptr %4, align 1, !tbaa !13
  %.not19.i50 = icmp eq i8 %44, 0
  br i1 %.not19.i50, label %55, label %45

45:                                               ; preds = %43
  %46 = icmp ult ptr %.04493, %1
  br i1 %46, label %47, label %53

47:                                               ; preds = %45
  %48 = load i8, ptr %14, align 1, !tbaa !13
  %49 = zext i8 %48 to i16
  %50 = shl nuw i16 %49, 8
  %51 = or disjoint i16 %50, %15
  %52 = getelementptr inbounds nuw i8, ptr %.04493, i64 2
  store i16 %51, ptr %.04493, align 2, !tbaa !4
  br label %54

53:                                               ; preds = %45
  store i32 15, ptr %5, align 4, !tbaa !8
  br label %54

54:                                               ; preds = %53, %47
  %.016.i51 = phi ptr [ %52, %47 ], [ %.04493, %53 ]
  store i8 0, ptr %4, align 1, !tbaa !13
  br label %appendEncodedByte.exit53

55:                                               ; preds = %43
  store i8 1, ptr %4, align 1, !tbaa !13
  store i8 %2, ptr %14, align 1, !tbaa !13
  br label %appendEncodedByte.exit53

appendEncodedByte.exit53:                         ; preds = %appendEncodedByte.exit, %54, %55
  %.0.i52 = phi ptr [ %.016.i51, %54 ], [ %.04493, %55 ], [ null, %appendEncodedByte.exit ]
  %56 = add nuw nsw i32 %.094, 1
  %exitcond.not = icmp eq i32 %56, %3
  br i1 %exitcond.not, label %appendEncodedByte.exit78, label %appendEncodedByte.exit, !llvm.loop !17

57:                                               ; preds = %10
  %58 = icmp eq i32 %3, 165
  br i1 %58, label %59, label %appendEncodedByte.exit63

59:                                               ; preds = %57
  %60 = icmp eq i8 %2, -91
  br i1 %60, label %61, label %appendEncodedByte.exit58

61:                                               ; preds = %59
  %62 = load i8, ptr %4, align 1, !tbaa !13
  %.not19.i55 = icmp eq i8 %62, 0
  br i1 %.not19.i55, label %74, label %63

63:                                               ; preds = %61
  %64 = icmp ult ptr %0, %1
  br i1 %64, label %65, label %72

65:                                               ; preds = %63
  %66 = getelementptr inbounds nuw i8, ptr %4, i64 1
  %67 = load i8, ptr %66, align 1, !tbaa !13
  %68 = zext i8 %67 to i16
  %69 = shl nuw i16 %68, 8
  %70 = or disjoint i16 %69, 165
  %71 = getelementptr inbounds nuw i8, ptr %0, i64 2
  store i16 %70, ptr %0, align 2, !tbaa !4
  br label %73

72:                                               ; preds = %63
  store i32 15, ptr %5, align 4, !tbaa !8
  br label %73

73:                                               ; preds = %72, %65
  %.016.i56 = phi ptr [ %71, %65 ], [ %0, %72 ]
  store i8 0, ptr %4, align 1, !tbaa !13
  br label %appendEncodedByte.exit58

74:                                               ; preds = %61
  store i8 1, ptr %4, align 1, !tbaa !13
  %75 = getelementptr inbounds nuw i8, ptr %4, i64 1
  store i8 -91, ptr %75, align 1, !tbaa !13
  br label %appendEncodedByte.exit58

appendEncodedByte.exit58:                         ; preds = %59, %73, %74
  %.4 = phi ptr [ %0, %59 ], [ %.016.i56, %73 ], [ %0, %74 ]
  %76 = load i32, ptr %5, align 4, !tbaa !8
  %77 = icmp sgt i32 %76, 0
  br i1 %77, label %appendEncodedByte.exit78, label %78

78:                                               ; preds = %appendEncodedByte.exit58
  %79 = load i8, ptr %4, align 1, !tbaa !13
  %.not19.i60 = icmp eq i8 %79, 0
  br i1 %.not19.i60, label %92, label %80

80:                                               ; preds = %78
  %81 = icmp ult ptr %.4, %1
  br i1 %81, label %82, label %90

82:                                               ; preds = %80
  %83 = getelementptr inbounds nuw i8, ptr %4, i64 1
  %84 = load i8, ptr %83, align 1, !tbaa !13
  %85 = zext i8 %84 to i16
  %86 = shl nuw i16 %85, 8
  %87 = zext i8 %2 to i16
  %88 = or disjoint i16 %86, %87
  %89 = getelementptr inbounds nuw i8, ptr %.4, i64 2
  store i16 %88, ptr %.4, align 2, !tbaa !4
  br label %91

90:                                               ; preds = %80
  store i32 15, ptr %5, align 4, !tbaa !8
  br label %91

91:                                               ; preds = %90, %82
  %.016.i61 = phi ptr [ %89, %82 ], [ %.4, %90 ]
  store i8 0, ptr %4, align 1, !tbaa !13
  br label %appendEncodedByte.exit63

92:                                               ; preds = %78
  store i8 1, ptr %4, align 1, !tbaa !13
  %93 = getelementptr inbounds nuw i8, ptr %4, i64 1
  store i8 %2, ptr %93, align 1, !tbaa !13
  br label %appendEncodedByte.exit63

appendEncodedByte.exit63:                         ; preds = %57, %91, %92
  %.045.ph = phi i32 [ 164, %92 ], [ 164, %91 ], [ %3, %57 ]
  %.3.ph = phi ptr [ %.4, %92 ], [ %.016.i61, %91 ], [ %0, %57 ]
  %.pr80 = load i32, ptr %5, align 4, !tbaa !8
  %94 = icmp sgt i32 %.pr80, 0
  br i1 %94, label %appendEncodedByte.exit78, label %95

95:                                               ; preds = %appendEncodedByte.exit63
  %96 = load i8, ptr %4, align 1, !tbaa !13
  %.not19.i65.not = icmp eq i8 %96, 0
  br i1 %.not19.i65.not, label %107, label %97

97:                                               ; preds = %95
  %98 = icmp ult ptr %.3.ph, %1
  br i1 %98, label %99, label %106

99:                                               ; preds = %97
  %100 = getelementptr inbounds nuw i8, ptr %4, i64 1
  %101 = load i8, ptr %100, align 1, !tbaa !13
  %102 = zext i8 %101 to i16
  %103 = shl nuw i16 %102, 8
  %104 = or disjoint i16 %103, 165
  %105 = getelementptr inbounds nuw i8, ptr %.3.ph, i64 2
  store i16 %104, ptr %.3.ph, align 2, !tbaa !4
  br label %.thread113

106:                                              ; preds = %97
  store i32 15, ptr %5, align 4, !tbaa !8
  br label %.thread113

107:                                              ; preds = %95
  store i8 1, ptr %4, align 1, !tbaa !13
  %108 = getelementptr inbounds nuw i8, ptr %4, i64 1
  store i8 -91, ptr %108, align 1, !tbaa !13
  %.pr84 = load i32, ptr %5, align 4, !tbaa !8
  %109 = icmp sgt i32 %.pr84, 0
  br i1 %109, label %appendEncodedByte.exit78, label %111

.thread113:                                       ; preds = %99, %106
  %.016.i66 = phi ptr [ %105, %99 ], [ %.3.ph, %106 ]
  store i8 0, ptr %4, align 1, !tbaa !13
  %.pr84115 = load i32, ptr %5, align 4, !tbaa !8
  %110 = icmp sgt i32 %.pr84115, 0
  br i1 %110, label %appendEncodedByte.exit78, label %appendEncodedByte.exit73.thread

111:                                              ; preds = %107
  %112 = icmp ult ptr %.3.ph, %1
  br i1 %112, label %113, label %122

113:                                              ; preds = %111
  %114 = getelementptr inbounds nuw i8, ptr %4, i64 1
  %115 = load i8, ptr %114, align 1, !tbaa !13
  %116 = zext i8 %115 to i16
  %117 = shl nuw i16 %116, 8
  %118 = trunc i32 %.045.ph to i16
  %119 = and i16 %118, 255
  %120 = or disjoint i16 %117, %119
  %121 = getelementptr inbounds nuw i8, ptr %.3.ph, i64 2
  store i16 %120, ptr %.3.ph, align 2, !tbaa !4
  br label %appendEncodedByte.exit73

122:                                              ; preds = %111
  store i32 15, ptr %5, align 4, !tbaa !8
  br label %appendEncodedByte.exit73

appendEncodedByte.exit73:                         ; preds = %113, %122
  %.016.i71 = phi ptr [ %121, %113 ], [ %.3.ph, %122 ]
  store i8 0, ptr %4, align 1, !tbaa !13
  %.pr87.pr = load i32, ptr %5, align 4, !tbaa !8
  %123 = icmp sgt i32 %.pr87.pr, 0
  br i1 %123, label %appendEncodedByte.exit78, label %138

appendEncodedByte.exit73.thread:                  ; preds = %.thread113
  %124 = trunc i32 %.045.ph to i8
  store i8 1, ptr %4, align 1, !tbaa !13
  %125 = getelementptr inbounds nuw i8, ptr %4, i64 1
  store i8 %124, ptr %125, align 1, !tbaa !13
  %.pr87.pr121 = load i32, ptr %5, align 4, !tbaa !8
  %126 = icmp sgt i32 %.pr87.pr121, 0
  br i1 %126, label %appendEncodedByte.exit78, label %.thread123

.thread123:                                       ; preds = %appendEncodedByte.exit73.thread
  %127 = icmp ult ptr %.016.i66, %1
  br i1 %127, label %128, label %136

128:                                              ; preds = %.thread123
  %129 = getelementptr inbounds nuw i8, ptr %4, i64 1
  %130 = load i8, ptr %129, align 1, !tbaa !13
  %131 = zext i8 %130 to i16
  %132 = shl nuw i16 %131, 8
  %133 = zext i8 %2 to i16
  %134 = or disjoint i16 %132, %133
  %135 = getelementptr inbounds nuw i8, ptr %.016.i66, i64 2
  store i16 %134, ptr %.016.i66, align 2, !tbaa !4
  br label %137

136:                                              ; preds = %.thread123
  store i32 15, ptr %5, align 4, !tbaa !8
  br label %137

137:                                              ; preds = %136, %128
  %.016.i76 = phi ptr [ %135, %128 ], [ %.016.i66, %136 ]
  store i8 0, ptr %4, align 1, !tbaa !13
  br label %appendEncodedByte.exit78

138:                                              ; preds = %appendEncodedByte.exit73
  store i8 1, ptr %4, align 1, !tbaa !13
  %139 = getelementptr inbounds nuw i8, ptr %4, i64 1
  store i8 %2, ptr %139, align 1, !tbaa !13
  br label %appendEncodedByte.exit78

appendEncodedByte.exit78:                         ; preds = %appendEncodedByte.exit53, %appendEncodedByte.exit53.us, %appendEncodedByte.exit73.thread, %.thread113, %.preheader, %appendEncodedByte.exit63, %appendEncodedByte.exit58, %107, %138, %137, %appendEncodedByte.exit73, %6, %7
  %.043 = phi ptr [ null, %7 ], [ null, %6 ], [ %.016.i76, %137 ], [ %.016.i71, %138 ], [ null, %appendEncodedByte.exit73 ], [ null, %107 ], [ null, %appendEncodedByte.exit58 ], [ null, %appendEncodedByte.exit63 ], [ %0, %.preheader ], [ null, %.thread113 ], [ null, %appendEncodedByte.exit73.thread ], [ %.0.i52.us, %appendEncodedByte.exit53.us ], [ %.0.i52, %appendEncodedByte.exit53 ]
  ret ptr %.043
}